; Function Attrs: nounwind uwtable
define void @Res_WinSweepLeafTfo_rec(ptr noundef readonly captures(none) %0, i32 noundef %1) local_unnamed_addr #0 {
  %3 = getelementptr i8, ptr %0, i64 20
  %.val14 = load i32, ptr %3, align 4
  %4 = and i32 %.val14, 15
  %5 = add nsw i32 %4, -3
  %narrow.i = icmp ult i32 %5, 2
  %6 = lshr i32 %.val14, 12
  %7 = icmp sgt i32 %6, %1
  %or.cond = or i1 %7, %narrow.i
  br i1 %or.cond, label %.critedge, label %8

8:                                                ; preds = %2
  %9 = tail call fastcc i32 @Abc_NodeIsTravIdCurrent(ptr noundef nonnull %0)
  %.not12 = icmp eq i32 %9, 0
  br i1 %.not12, label %10, label %.critedge

10:                                               ; preds = %8
  %.val = load ptr, ptr %0, align 8, !tbaa !13
  %11 = getelementptr i8, ptr %0, i64 16
  %.val13 = load i32, ptr %11, align 8, !tbaa !42
  %12 = getelementptr inbounds nuw i8, ptr %.val, i64 216
  %13 = load i32, ptr %12, align 8, !tbaa !38
  %14 = getelementptr inbounds nuw i8, ptr %.val, i64 224
  %15 = add nsw i32 %.val13, 1
  %16 = getelementptr inbounds nuw i8, ptr %.val, i64 228
  %17 = load i32, ptr %16, align 4, !tbaa !37
  %.not.i.not.i.i.i = icmp slt i32 %.val13, %17
  br i1 %.not.i.not.i.i.i, label %Abc_NodeSetTravIdCurrent.exit, label %18

18:                                               ; preds = %10
  %19 = load i32, ptr %14, align 8, !tbaa !34
  %20 = shl nsw i32 %19, 1
  %.not.i.i.i = icmp slt i32 %.val13, %20
  %.not.i.i.not.i.i.i = icmp sgt i32 %19, %.val13
  br i1 %.not.i.i.i, label %33, label %21

21:                                               ; preds = %18
  br i1 %.not.i.i.not.i.i.i, label %Vec_IntGrow.exit.i.i.i.i, label %22

22:                                               ; preds = %21
  %23 = getelementptr inbounds nuw i8, ptr %.val, i64 232
  %24 = load ptr, ptr %23, align 8, !tbaa !35
  %.not9.i.i.i.i.i = icmp eq ptr %24, null
  %25 = sext i32 %15 to i64
  %26 = shl nsw i64 %25, 2
  br i1 %.not9.i.i.i.i.i, label %29, label %27

27:                                               ; preds = %22
  %28 = tail call ptr @realloc(ptr noundef nonnull %24, i64 noundef %26) #7
  br label %31

29:                                               ; preds = %22
  %30 = tail call noalias ptr @malloc(i64 noundef %26) #6
  br label %31

31:                                               ; preds = %29, %27
  %32 = phi ptr [ %28, %27 ], [ %30, %29 ]
  store ptr %32, ptr %23, align 8, !tbaa !35
  br label %Vec_IntGrow.exit.sink.split.i.i.i.i

33:                                               ; preds = %18
  br i1 %.not.i.i.not.i.i.i, label %Vec_IntGrow.exit.i.i.i.i, label %34

34:                                               ; preds = %33
  %35 = getelementptr inbounds nuw i8, ptr %.val, i64 232
  %36 = load ptr, ptr %35, align 8, !tbaa !35
  %.not9.i21.i.i.i.i = icmp eq ptr %36, null
  %37 = sext i32 %20 to i64
  %38 = shl nsw i64 %37, 2
  br i1 %.not9.i21.i.i.i.i, label %41, label %39

39:                                               ; preds = %34
  %40 = tail call ptr @realloc(ptr noundef nonnull %36, i64 noundef %38) #7
  br label %43

41:                                               ; preds = %34
  %42 = tail call noalias ptr @malloc(i64 noundef %38) #6
  br label %43

43:                                               ; preds = %41, %39
  %44 = phi ptr [ %40, %39 ], [ %42, %41 ]
  store ptr %44, ptr %35, align 8, !tbaa !35
  br label %Vec_IntGrow.exit.sink.split.i.i.i.i

Vec_IntGrow.exit.sink.split.i.i.i.i:              ; preds = %43, %31
  %.sink.i.i.i.i = phi i32 [ %20, %43 ], [ %15, %31 ]
  store i32 %.sink.i.i.i.i, ptr %14, align 8, !tbaa !34
  %.pre.i.i.i = load i32, ptr %16, align 4, !tbaa !37
  br label %Vec_IntGrow.exit.i.i.i.i

Vec_IntGrow.exit.i.i.i.i:                         ; preds = %Vec_IntGrow.exit.sink.split.i.i.i.i, %33, %21
  %45 = phi i32 [ %.pre.i.i.i, %Vec_IntGrow.exit.sink.split.i.i.i.i ], [ %17, %33 ], [ %17, %21 ]
  %.not4.i.i.i = icmp sgt i32 %45, %.val13
  br i1 %.not4.i.i.i, label %._crit_edge.i.i.i.i, label %.lr.ph.i.i.i.i

.lr.ph.i.i.i.i:                                   ; preds = %Vec_IntGrow.exit.i.i.i.i
  %46 = getelementptr inbounds nuw i8, ptr %.val, i64 232
  %47 = load ptr, ptr %46, align 8, !tbaa !35
  %48 = sext i32 %45 to i64
  %49 = shl nsw i64 %48, 2
  %scevgep.i.i.i.i = getelementptr i8, ptr %47, i64 %49
  %50 = sub i32 %.val13, %45
  %51 = zext i32 %50 to i64
  %52 = shl nuw nsw i64 %51, 2
  %53 = add nuw nsw i64 %52, 4
  tail call void @llvm.memset.p0.i64(ptr noundef nonnull align 4 dereferenceable(1) %scevgep.i.i.i.i, i8 0, i64 %53, i1 false), !tbaa !36
  br label %._crit_edge.i.i.i.i

._crit_edge.i.i.i.i:                              ; preds = %.lr.ph.i.i.i.i, %Vec_IntGrow.exit.i.i.i.i
  store i32 %15, ptr %16, align 4, !tbaa !37
  br label %Abc_NodeSetTravIdCurrent.exit

Abc_NodeSetTravIdCurrent.exit:                    ; preds = %10, %._crit_edge.i.i.i.i
  %54 = getelementptr i8, ptr %.val, i64 232
  %.val.i.i.i = load ptr, ptr %54, align 8, !tbaa !35
  %55 = sext i32 %.val13 to i64
  %56 = getelementptr inbounds i32, ptr %.val.i.i.i, i64 %55
  store i32 %13, ptr %56, align 4, !tbaa !36
  %57 = getelementptr i8, ptr %0, i64 44
  %.val1519 = load i32, ptr %57, align 4, !tbaa !54
  %58 = icmp sgt i32 %.val1519, 0
  br i1 %58, label %.lr.ph, label %.critedge

.lr.ph:                                           ; preds = %Abc_NodeSetTravIdCurrent.exit
  %59 = getelementptr i8, ptr %0, i64 48
  br label %60

60:                                               ; preds = %.lr.ph, %60
  %indvars.iv = phi i64 [ 0, %.lr.ph ], [ %indvars.iv.next, %60 ]
  %.val16 = load ptr, ptr %0, align 8, !tbaa !13
  %.val17 = load ptr, ptr %59, align 8, !tbaa !55
  %61 = getelementptr i8, ptr %.val16, i64 32
  %.val16.val = load ptr, ptr %61, align 8, !tbaa !31
  %62 = getelementptr i8, ptr %.val16.val, i64 8
  %.val16.val.val = load ptr, ptr %62, align 8, !tbaa !40
  %63 = getelementptr inbounds nuw i32, ptr %.val17, i64 %indvars.iv
  %64 = load i32, ptr %63, align 4, !tbaa !36
  %65 = sext i32 %64 to i64
  %66 = getelementptr inbounds ptr, ptr %.val16.val.val, i64 %65
  %67 = load ptr, ptr %66, align 8, !tbaa !41
  tail call void @Res_WinSweepLeafTfo_rec(ptr noundef %67, i32 noundef %1)
  %indvars.iv.next = add nuw nsw i64 %indvars.iv, 1
  %.val15 = load i32, ptr %57, align 4, !tbaa !54
  %68 = sext i32 %.val15 to i64
  %69 = icmp slt i64 %indvars.iv.next, %68
  br i1 %69, label %60, label %.critedge, !llvm.loop !59

.critedge:                                        ; preds = %60, %Abc_NodeSetTravIdCurrent.exit, %8, %2
  ret void
}